target datalayout = "e-m:e-p270:32:32-p271:32:32-p272:64:64-i64:64-i128:128-f80:128-n8:16:32:64-S128"
target triple = "x86_64-pc-linux-gnu"

%struct.dump_opt_t = type { i32, i32, i32, i32, i32, i32, i32, i32, i32, i32, i32, i32, i32, i32, i32, i32, i32 }
%struct.h5tools_str_t = type { ptr, i64, i64 }
%struct.h5tools_context_t = type { i64, i64, i32, i32, [32 x i64], [32 x i64], i32, i64, i32, i64, i32, i32, [32 x i64], [32 x i64], i64, ptr, ptr, i32, i32 }
%struct.h5tool_format_t = type { i8, ptr, ptr, ptr, ptr, ptr, ptr, ptr, ptr, ptr, ptr, ptr, ptr, ptr, ptr, ptr, ptr, ptr, i32, i32, i32, ptr, ptr, ptr, i32, ptr, ptr, ptr, ptr, ptr, ptr, ptr, ptr, ptr, ptr, ptr, ptr, ptr, ptr, ptr, ptr, i32, i64, ptr, ptr, ptr, ptr, ptr, i32, ptr, i32, i32, ptr, i32, ptr, ptr, ptr, ptr, i32, i32 }
%struct.H5O_info2_t = type { i64, %struct.H5O_token_t, i32, i32, i64, i64, i64, i64, i64 }
%struct.H5O_token_t = type { [16 x i8] }
%struct.obj_t = type { %struct.H5O_token_t, ptr, i8, i8 }

@xmlnsprefix = dso_local global ptr @.str, align 8
@dump_indent = external global i32, align 4
@fp_format = external global ptr, align 8
@fp_lformat = external global ptr, align 8
@complex_format = external global ptr, align 8
@h5tools_nCols = external global i32, align 4
@dump_opts = external global %struct.dump_opt_t, align 4
@type_table = external global ptr, align 8
@.str.1 = private unnamed_addr constant [35 x i8] c"<%sNamedDataTypePtr OBJ-XID=\22%s\22/>\00", align 1
@rawoutstream = external global ptr, align 8
@.str.2 = private unnamed_addr constant [48 x i8] c"<%sNamedDataTypePtr OBJ-XID=\22%s\22 H5Path=\22%s\22 />\00", align 1
@.str.3 = private unnamed_addr constant [47 x i8] c"<!-- h5dump error: unknown committed type. -->\00", align 1
@.str.4 = private unnamed_addr constant [13 x i8] c"<%sDataType>\00", align 1
@.str.5 = private unnamed_addr constant [14 x i8] c"</%sDataType>\00", align 1

; Function Attrs: nounwind uwtable
define dso_local void @xml_dump_datatype(i64 noundef %0) #0 {
  %2 = alloca i64, align 8
  %3 = alloca %struct.h5tools_str_t, align 8
  %4 = alloca %struct.h5tools_context_t, align 8
  %5 = alloca ptr, align 8
  %6 = alloca %struct.h5tool_format_t, align 8
  %7 = alloca i64, align 8
  %8 = alloca %struct.H5O_info2_t, align 8
  %9 = alloca ptr, align 8
  %10 = alloca ptr, align 8
  %11 = alloca ptr, align 8
  store i64 %0, ptr %2, align 8, !tbaa !4
  call void @llvm.lifetime.start.p0(i64 24, ptr %3) #9
  call void @llvm.lifetime.start.p0(i64 1120, ptr %4) #9
  call void @llvm.lifetime.start.p0(i64 8, ptr %5) #9
  store ptr @xml_dataformat, ptr %5, align 8, !tbaa !8
  call void @llvm.lifetime.start.p0(i64 456, ptr %6) #9
  call void @llvm.lifetime.start.p0(i64 8, ptr %7) #9
  store i64 0, ptr %7, align 8, !tbaa !4
  call void @llvm.memset.p0.i64(ptr align 8 %3, i8 0, i64 24, i1 false)
  call void @llvm.memset.p0.i64(ptr align 8 %4, i8 0, i64 1120, i1 false)
  %12 = load i32, ptr @dump_indent, align 4, !tbaa !11
  %13 = udiv i32 %12, 3
  %14 = getelementptr inbounds nuw %struct.h5tools_context_t, ptr %4, i32 0, i32 10
  store i32 %13, ptr %14, align 8, !tbaa !13
  %15 = load i32, ptr @dump_indent, align 4, !tbaa !11
  %16 = zext i32 %15 to i64
  %17 = getelementptr inbounds nuw %struct.h5tools_context_t, ptr %4, i32 0, i32 0
  store i64 %16, ptr %17, align 8, !tbaa !17
  %18 = load ptr, ptr %5, align 8, !tbaa !8
  call void @llvm.memcpy.p0.p0.i64(ptr align 8 %6, ptr align 8 %18, i64 456, i1 false), !tbaa.struct !18
  %19 = load ptr, ptr @fp_format, align 8, !tbaa !21
  %20 = icmp ne ptr %19, null
  br i1 %20, label %21, label %26

21:                                               ; preds = %1
  %22 = load ptr, ptr @fp_format, align 8, !tbaa !21
  %23 = getelementptr inbounds nuw %struct.h5tool_format_t, ptr %6, i32 0, i32 13
  store ptr %22, ptr %23, align 8, !tbaa !24
  %24 = load ptr, ptr @fp_format, align 8, !tbaa !21
  %25 = getelementptr inbounds nuw %struct.h5tool_format_t, ptr %6, i32 0, i32 12
  store ptr %24, ptr %25, align 8, !tbaa !26
  br label %26

26:                                               ; preds = %21, %1
  %27 = load ptr, ptr @fp_lformat, align 8, !tbaa !21
  %28 = icmp ne ptr %27, null
  br i1 %28, label %29, label %32

29:                                               ; preds = %26
  %30 = load ptr, ptr @fp_lformat, align 8, !tbaa !21
  %31 = getelementptr inbounds nuw %struct.h5tool_format_t, ptr %6, i32 0, i32 14
  store ptr %30, ptr %31, align 8, !tbaa !27
  br label %32

32:                                               ; preds = %29, %26
  %33 = load ptr, ptr @complex_format, align 8, !tbaa !21
  %34 = icmp ne ptr %33, null
  br i1 %34, label %35, label %40

35:                                               ; preds = %32
  %36 = load ptr, ptr @complex_format, align 8, !tbaa !21
  %37 = getelementptr inbounds nuw %struct.h5tool_format_t, ptr %6, i32 0, i32 16
  store ptr %36, ptr %37, align 8, !tbaa !28
  %38 = load ptr, ptr @complex_format, align 8, !tbaa !21
  %39 = getelementptr inbounds nuw %struct.h5tool_format_t, ptr %6, i32 0, i32 15
  store ptr %38, ptr %39, align 8, !tbaa !29
  br label %40

40:                                               ; preds = %35, %32
  %41 = load i32, ptr @h5tools_nCols, align 4, !tbaa !11
  %42 = icmp eq i32 %41, 0
  br i1 %42, label %43, label %46

43:                                               ; preds = %40
  %44 = getelementptr inbounds nuw %struct.h5tool_format_t, ptr %6, i32 0, i32 41
  store i32 65535, ptr %44, align 8, !tbaa !30
  %45 = getelementptr inbounds nuw %struct.h5tool_format_t, ptr %6, i32 0, i32 42
  store i64 1, ptr %45, align 8, !tbaa !31
  br label %49

46:                                               ; preds = %40
  %47 = load i32, ptr @h5tools_nCols, align 4, !tbaa !11
  %48 = getelementptr inbounds nuw %struct.h5tool_format_t, ptr %6, i32 0, i32 41
  store i32 %47, ptr %48, align 8, !tbaa !30
  br label %49

49:                                               ; preds = %46, %43
  %50 = load i32, ptr getelementptr inbounds nuw (%struct.dump_opt_t, ptr @dump_opts, i32 0, i32 10), align 4, !tbaa !32
  %51 = getelementptr inbounds nuw %struct.h5tool_format_t, ptr %6, i32 0, i32 59
  store i32 %50, ptr %51, align 4, !tbaa !34
  store ptr %6, ptr %5, align 8, !tbaa !8
  %52 = getelementptr inbounds nuw %struct.h5tools_context_t, ptr %4, i32 0, i32 10
  %53 = load i32, ptr %52, align 8, !tbaa !13
  %54 = add i32 %53, 1
  store i32 %54, ptr %52, align 8, !tbaa !13
  %55 = load i32, ptr @dump_indent, align 4, !tbaa !11
  %56 = add i32 %55, 3
  store i32 %56, ptr @dump_indent, align 4, !tbaa !11
  %57 = load i64, ptr %2, align 8, !tbaa !4
  %58 = call i32 @H5Tcommitted(i64 noundef %57)
  %59 = icmp sgt i32 %58, 0
  br i1 %59, label %60, label %126

60:                                               ; preds = %49
  call void @llvm.lifetime.start.p0(i64 72, ptr %8) #9
  call void @llvm.lifetime.start.p0(i64 8, ptr %9) #9
  %61 = load i64, ptr %2, align 8, !tbaa !4
  %62 = call i32 @H5Oget_info3(i64 noundef %61, ptr noundef %8, i32 noundef 1)
  %63 = load ptr, ptr @type_table, align 8, !tbaa !35
  %64 = getelementptr inbounds nuw %struct.H5O_info2_t, ptr %8, i32 0, i32 1
  %65 = call ptr @search_obj(ptr noundef %63, ptr noundef %64)
  store ptr %65, ptr %9, align 8, !tbaa !37
  %66 = load ptr, ptr %9, align 8, !tbaa !37
  %67 = icmp ne ptr %66, null
  br i1 %67, label %68, label %114

68:                                               ; preds = %60
  call void @llvm.lifetime.start.p0(i64 8, ptr %10) #9
  %69 = call noalias ptr @malloc(i64 noundef 100) #10
  store ptr %69, ptr %10, align 8, !tbaa !21
  %70 = load i64, ptr %2, align 8, !tbaa !4
  %71 = load ptr, ptr %9, align 8, !tbaa !37
  %72 = getelementptr inbounds nuw %struct.obj_t, ptr %71, i32 0, i32 1
  %73 = load ptr, ptr %72, align 8, !tbaa !39
  %74 = load ptr, ptr %10, align 8, !tbaa !21
  %75 = call i32 @xml_name_to_XID(i64 noundef %70, ptr noundef %73, ptr noundef %74, i32 noundef 100, i32 noundef 1)
  %76 = load ptr, ptr %9, align 8, !tbaa !37
  %77 = getelementptr inbounds nuw %struct.obj_t, ptr %76, i32 0, i32 3
  %78 = load i8, ptr %77, align 1, !tbaa !42, !range !43, !noundef !44
  %79 = trunc i8 %78 to i1
  br i1 %79, label %93, label %80

80:                                               ; preds = %68
  %81 = getelementptr inbounds nuw %struct.h5tools_context_t, ptr %4, i32 0, i32 2
  store i32 1, ptr %81, align 8, !tbaa !45
  %82 = call ptr @h5tools_str_reset(ptr noundef %3)
  %83 = load ptr, ptr @xmlnsprefix, align 8, !tbaa !21
  %84 = load ptr, ptr %10, align 8, !tbaa !21
  %85 = call ptr (ptr, ptr, ...) @h5tools_str_append(ptr noundef %3, ptr noundef @.str.1, ptr noundef %83, ptr noundef %84)
  %86 = load ptr, ptr @rawoutstream, align 8, !tbaa !46
  %87 = load ptr, ptr %5, align 8, !tbaa !8
  %88 = load ptr, ptr %5, align 8, !tbaa !8
  %89 = getelementptr inbounds nuw %struct.h5tool_format_t, ptr %88, i32 0, i32 41
  %90 = load i32, ptr %89, align 8, !tbaa !30
  %91 = zext i32 %90 to i64
  %92 = call zeroext i1 @h5tools_render_element(ptr noundef %86, ptr noundef %87, ptr noundef %4, ptr noundef %3, ptr noundef %7, i64 noundef %91, i64 noundef 0, i64 noundef 0)
  br label %112

93:                                               ; preds = %68
  call void @llvm.lifetime.start.p0(i64 8, ptr %11) #9
  %94 = load ptr, ptr %9, align 8, !tbaa !37
  %95 = getelementptr inbounds nuw %struct.obj_t, ptr %94, i32 0, i32 1
  %96 = load ptr, ptr %95, align 8, !tbaa !39
  %97 = call ptr @xml_escape_the_name(ptr noundef %96)
  store ptr %97, ptr %11, align 8, !tbaa !21
  %98 = getelementptr inbounds nuw %struct.h5tools_context_t, ptr %4, i32 0, i32 2
  store i32 1, ptr %98, align 8, !tbaa !45
  %99 = call ptr @h5tools_str_reset(ptr noundef %3)
  %100 = load ptr, ptr @xmlnsprefix, align 8, !tbaa !21
  %101 = load ptr, ptr %10, align 8, !tbaa !21
  %102 = load ptr, ptr %11, align 8, !tbaa !21
  %103 = call ptr (ptr, ptr, ...) @h5tools_str_append(ptr noundef %3, ptr noundef @.str.2, ptr noundef %100, ptr noundef %101, ptr noundef %102)
  %104 = load ptr, ptr @rawoutstream, align 8, !tbaa !46
  %105 = load ptr, ptr %5, align 8, !tbaa !8
  %106 = load ptr, ptr %5, align 8, !tbaa !8
  %107 = getelementptr inbounds nuw %struct.h5tool_format_t, ptr %106, i32 0, i32 41
  %108 = load i32, ptr %107, align 8, !tbaa !30
  %109 = zext i32 %108 to i64
  %110 = call zeroext i1 @h5tools_render_element(ptr noundef %104, ptr noundef %105, ptr noundef %4, ptr noundef %3, ptr noundef %7, i64 noundef %109, i64 noundef 0, i64 noundef 0)
  %111 = load ptr, ptr %11, align 8, !tbaa !21
  call void @free(ptr noundef %111) #9
  call void @llvm.lifetime.end.p0(i64 8, ptr %11) #9
  br label %112

112:                                              ; preds = %93, %80
  %113 = load ptr, ptr %10, align 8, !tbaa !21
  call void @free(ptr noundef %113) #9
  call void @llvm.lifetime.end.p0(i64 8, ptr %10) #9
  br label %125

114:                                              ; preds = %60
  %115 = getelementptr inbounds nuw %struct.h5tools_context_t, ptr %4, i32 0, i32 2
  store i32 1, ptr %115, align 8, !tbaa !45
  %116 = call ptr @h5tools_str_reset(ptr noundef %3)
  %117 = call ptr (ptr, ptr, ...) @h5tools_str_append(ptr noundef %3, ptr noundef @.str.3)
  %118 = load ptr, ptr @rawoutstream, align 8, !tbaa !46
  %119 = load ptr, ptr %5, align 8, !tbaa !8
  %120 = load ptr, ptr %5, align 8, !tbaa !8
  %121 = getelementptr inbounds nuw %struct.h5tool_format_t, ptr %120, i32 0, i32 41
  %122 = load i32, ptr %121, align 8, !tbaa !30
  %123 = zext i32 %122 to i64
  %124 = call zeroext i1 @h5tools_render_element(ptr noundef %118, ptr noundef %119, ptr noundef %4, ptr noundef %3, ptr noundef %7, i64 noundef %123, i64 noundef 0, i64 noundef 0)
  br label %125

125:                                              ; preds = %114, %112
  call void @llvm.lifetime.end.p0(i64 8, ptr %9) #9
  call void @llvm.lifetime.end.p0(i64 72, ptr %8) #9
  br label %160

126:                                              ; preds = %49
  %127 = getelementptr inbounds nuw %struct.h5tools_context_t, ptr %4, i32 0, i32 2
  store i32 1, ptr %127, align 8, !tbaa !45
  %128 = call ptr @h5tools_str_reset(ptr noundef %3)
  %129 = load ptr, ptr @xmlnsprefix, align 8, !tbaa !21
  %130 = call ptr (ptr, ptr, ...) @h5tools_str_append(ptr noundef %3, ptr noundef @.str.4, ptr noundef %129)
  %131 = load ptr, ptr @rawoutstream, align 8, !tbaa !46
  %132 = load ptr, ptr %5, align 8, !tbaa !8
  %133 = load ptr, ptr %5, align 8, !tbaa !8
  %134 = getelementptr inbounds nuw %struct.h5tool_format_t, ptr %133, i32 0, i32 41
  %135 = load i32, ptr %134, align 8, !tbaa !30
  %136 = zext i32 %135 to i64
  %137 = call zeroext i1 @h5tools_render_element(ptr noundef %131, ptr noundef %132, ptr noundef %4, ptr noundef %3, ptr noundef %7, i64 noundef %136, i64 noundef 0, i64 noundef 0)
  %138 = getelementptr inbounds nuw %struct.h5tools_context_t, ptr %4, i32 0, i32 10
  %139 = load i32, ptr %138, align 8, !tbaa !13
  %140 = add i32 %139, 1
  store i32 %140, ptr %138, align 8, !tbaa !13
  %141 = load i32, ptr @dump_indent, align 4, !tbaa !11
  %142 = add i32 %141, 3
  store i32 %142, ptr @dump_indent, align 4, !tbaa !11
  %143 = load i64, ptr %2, align 8, !tbaa !4
  call void @xml_print_datatype(i64 noundef %143, i32 noundef 0)
  %144 = getelementptr inbounds nuw %struct.h5tools_context_t, ptr %4, i32 0, i32 10
  %145 = load i32, ptr %144, align 8, !tbaa !13
  %146 = add i32 %145, -1
  store i32 %146, ptr %144, align 8, !tbaa !13
  %147 = load i32, ptr @dump_indent, align 4, !tbaa !11
  %148 = sub i32 %147, 3
  store i32 %148, ptr @dump_indent, align 4, !tbaa !11
  %149 = getelementptr inbounds nuw %struct.h5tools_context_t, ptr %4, i32 0, i32 2
  store i32 1, ptr %149, align 8, !tbaa !45
  %150 = call ptr @h5tools_str_reset(ptr noundef %3)
  %151 = load ptr, ptr @xmlnsprefix, align 8, !tbaa !21
  %152 = call ptr (ptr, ptr, ...) @h5tools_str_append(ptr noundef %3, ptr noundef @.str.5, ptr noundef %151)
  %153 = load ptr, ptr @rawoutstream, align 8, !tbaa !46
  %154 = load ptr, ptr %5, align 8, !tbaa !8
  %155 = load ptr, ptr %5, align 8, !tbaa !8
  %156 = getelementptr inbounds nuw %struct.h5tool_format_t, ptr %155, i32 0, i32 41
  %157 = load i32, ptr %156, align 8, !tbaa !30
  %158 = zext i32 %157 to i64
  %159 = call zeroext i1 @h5tools_render_element(ptr noundef %153, ptr noundef %154, ptr noundef %4, ptr noundef %3, ptr noundef %7, i64 noundef %158, i64 noundef 0, i64 noundef 0)
  br label %160

160:                                              ; preds = %126, %125
  %161 = getelementptr inbounds nuw %struct.h5tools_context_t, ptr %4, i32 0, i32 10
  %162 = load i32, ptr %161, align 8, !tbaa !13
  %163 = add i32 %162, -1
  store i32 %163, ptr %161, align 8, !tbaa !13
  %164 = load i32, ptr @dump_indent, align 4, !tbaa !11
  %165 = sub i32 %164, 3
  store i32 %165, ptr @dump_indent, align 4, !tbaa !11
  call void @h5tools_str_close(ptr noundef %3)
  call void @llvm.lifetime.end.p0(i64 8, ptr %7) #9
  call void @llvm.lifetime.end.p0(i64 456, ptr %6) #9
  call void @llvm.lifetime.end.p0(i64 8, ptr %5) #9
  call void @llvm.lifetime.end.p0(i64 1120, ptr %4) #9
  call void @llvm.lifetime.end.p0(i64 24, ptr %3) #9
  ret void
}