; Function Attrs: nounwind uwtable
define dso_local void @xml_dump_datatype(i64 noundef %0) local_unnamed_addr #0 {
  %2 = alloca %struct.h5tools_str_t, align 8
  %3 = alloca %struct.h5tools_context_t, align 8
  %4 = alloca %struct.h5tool_format_t, align 8
  %5 = alloca i64, align 8
  %6 = alloca %struct.H5O_info2_t, align 8
  call void @llvm.lifetime.start.p0(i64 24, ptr nonnull %2) #14
  call void @llvm.lifetime.start.p0(i64 1120, ptr nonnull %3) #14
  call void @llvm.lifetime.start.p0(i64 456, ptr nonnull %4) #14
  call void @llvm.lifetime.start.p0(i64 8, ptr nonnull %5) #14
  store i64 0, ptr %5, align 8, !tbaa !4
  call void @llvm.memset.p0.i64(ptr noundef nonnull align 8 dereferenceable(24) %2, i8 0, i64 24, i1 false)
  %7 = getelementptr inbounds nuw i8, ptr %3, i64 8
  call void @llvm.memset.p0.i64(ptr noundef nonnull align 8 dereferenceable(1120) %7, i8 0, i64 1112, i1 false)
  %8 = load i32, ptr @dump_indent, align 4, !tbaa !8
  %9 = udiv i32 %8, 3
  %10 = getelementptr inbounds nuw i8, ptr %3, i64 568
  %11 = zext i32 %8 to i64
  store i64 %11, ptr %3, align 8, !tbaa !10
  call void @llvm.memcpy.p0.p0.i64(ptr noundef nonnull align 8 dereferenceable(456) %4, ptr noundef nonnull align 8 dereferenceable(456) @xml_dataformat, i64 456, i1 false), !tbaa.struct !15
  %12 = load ptr, ptr @fp_format, align 8, !tbaa !18
  %.not = icmp eq ptr %12, null
  br i1 %.not, label %16, label %13

13:                                               ; preds = %1
  %14 = getelementptr inbounds nuw i8, ptr %4, i64 104
  store ptr %12, ptr %14, align 8, !tbaa !21
  %15 = getelementptr inbounds nuw i8, ptr %4, i64 96
  store ptr %12, ptr %15, align 8, !tbaa !23
  br label %16

16:                                               ; preds = %13, %1
  %17 = load ptr, ptr @fp_lformat, align 8, !tbaa !18
  %.not28 = icmp eq ptr %17, null
  br i1 %.not28, label %20, label %18

18:                                               ; preds = %16
  %19 = getelementptr inbounds nuw i8, ptr %4, i64 112
  store ptr %17, ptr %19, align 8, !tbaa !24
  br label %20

20:                                               ; preds = %18, %16
  %21 = load ptr, ptr @complex_format, align 8, !tbaa !18
  %.not29 = icmp eq ptr %21, null
  br i1 %.not29, label %25, label %22

22:                                               ; preds = %20
  %23 = getelementptr inbounds nuw i8, ptr %4, i64 128
  store ptr %21, ptr %23, align 8, !tbaa !25
  %24 = getelementptr inbounds nuw i8, ptr %4, i64 120
  store ptr %21, ptr %24, align 8, !tbaa !26
  br label %25

25:                                               ; preds = %22, %20
  %26 = load i32, ptr @h5tools_nCols, align 4, !tbaa !8
  %27 = icmp eq i32 %26, 0
  br i1 %27, label %28, label %30

28:                                               ; preds = %25
  %29 = getelementptr inbounds nuw i8, ptr %4, i64 328
  store i64 1, ptr %29, align 8, !tbaa !27
  br label %30

30:                                               ; preds = %25, %28
  %.sink = phi i32 [ 65535, %28 ], [ %26, %25 ]
  %31 = getelementptr inbounds nuw i8, ptr %4, i64 320
  store i32 %.sink, ptr %31, align 8, !tbaa !28
  %32 = load i32, ptr getelementptr inbounds nuw (i8, ptr @dump_opts, i64 40), align 4, !tbaa !29
  %33 = getelementptr inbounds nuw i8, ptr %4, i64 452
  store i32 %32, ptr %33, align 4, !tbaa !31
  %34 = add nuw nsw i32 %9, 1
  store i32 %34, ptr %10, align 8, !tbaa !32
  %35 = add i32 %8, 3
  store i32 %35, ptr @dump_indent, align 4, !tbaa !8
  %36 = tail call i32 @H5Tcommitted(i64 noundef %0) #14
  %37 = icmp sgt i32 %36, 0
  br i1 %37, label %38, label %80

38:                                               ; preds = %30
  call void @llvm.lifetime.start.p0(i64 72, ptr nonnull %6) #14
  %39 = call i32 @H5Oget_info3(i64 noundef %0, ptr noundef nonnull %6, i32 noundef 1) #14
  %40 = load ptr, ptr @type_table, align 8, !tbaa !33
  %41 = getelementptr inbounds nuw i8, ptr %6, i64 8
  %42 = call ptr @search_obj(ptr noundef %40, ptr noundef nonnull %41) #14
  %.not30 = icmp eq ptr %42, null
  br i1 %.not30, label %71, label %43

43:                                               ; preds = %38
  %44 = call noalias dereferenceable_or_null(100) ptr @malloc(i64 noundef 100) #15
  %45 = getelementptr inbounds nuw i8, ptr %42, i64 16
  %46 = load ptr, ptr %45, align 8, !tbaa !35
  call fastcc void @xml_name_to_XID(i64 noundef %0, ptr noundef %46, ptr noundef %44, i32 noundef 1)
  %47 = getelementptr inbounds nuw i8, ptr %42, i64 25
  %48 = load i8, ptr %47, align 1, !tbaa !38, !range !39, !noundef !40
  %49 = trunc nuw i8 %48 to i1
  br i1 %49, label %59, label %50

50:                                               ; preds = %43
  %51 = getelementptr inbounds nuw i8, ptr %3, i64 16
  store i32 1, ptr %51, align 8, !tbaa !41
  %52 = call ptr @h5tools_str_reset(ptr noundef nonnull %2) #14
  %53 = load ptr, ptr @xmlnsprefix, align 8, !tbaa !18
  %54 = call ptr (ptr, ptr, ...) @h5tools_str_append(ptr noundef nonnull %2, ptr noundef nonnull @.str.1, ptr noundef %53, ptr noundef %44) #14
  %55 = load ptr, ptr @rawoutstream, align 8, !tbaa !42
  %56 = load i32, ptr %31, align 8, !tbaa !28
  %57 = zext i32 %56 to i64
  %58 = call zeroext i1 @h5tools_render_element(ptr noundef %55, ptr noundef nonnull %4, ptr noundef nonnull %3, ptr noundef nonnull %2, ptr noundef nonnull %5, i64 noundef %57, i64 noundef 0, i64 noundef 0) #14
  br label %70

59:                                               ; preds = %43
  %60 = load ptr, ptr %45, align 8, !tbaa !35
  %61 = call fastcc ptr @xml_escape_the_name(ptr noundef %60)
  %62 = getelementptr inbounds nuw i8, ptr %3, i64 16
  store i32 1, ptr %62, align 8, !tbaa !41
  %63 = call ptr @h5tools_str_reset(ptr noundef nonnull %2) #14
  %64 = load ptr, ptr @xmlnsprefix, align 8, !tbaa !18
  %65 = call ptr (ptr, ptr, ...) @h5tools_str_append(ptr noundef nonnull %2, ptr noundef nonnull @.str.2, ptr noundef %64, ptr noundef %44, ptr noundef %61) #14
  %66 = load ptr, ptr @rawoutstream, align 8, !tbaa !42
  %67 = load i32, ptr %31, align 8, !tbaa !28
  %68 = zext i32 %67 to i64
  %69 = call zeroext i1 @h5tools_render_element(ptr noundef %66, ptr noundef nonnull %4, ptr noundef nonnull %3, ptr noundef nonnull %2, ptr noundef nonnull %5, i64 noundef %68, i64 noundef 0, i64 noundef 0) #14
  call void @free(ptr noundef %61) #14
  br label %70

70:                                               ; preds = %59, %50
  call void @free(ptr noundef %44) #14
  br label %79

71:                                               ; preds = %38
  %72 = getelementptr inbounds nuw i8, ptr %3, i64 16
  store i32 1, ptr %72, align 8, !tbaa !41
  %73 = call ptr @h5tools_str_reset(ptr noundef nonnull %2) #14
  %74 = call ptr (ptr, ptr, ...) @h5tools_str_append(ptr noundef nonnull %2, ptr noundef nonnull @.str.3) #14
  %75 = load ptr, ptr @rawoutstream, align 8, !tbaa !42
  %76 = load i32, ptr %31, align 8, !tbaa !28
  %77 = zext i32 %76 to i64
  %78 = call zeroext i1 @h5tools_render_element(ptr noundef %75, ptr noundef nonnull %4, ptr noundef nonnull %3, ptr noundef nonnull %2, ptr noundef nonnull %5, i64 noundef %77, i64 noundef 0, i64 noundef 0) #14
  br label %79

79:                                               ; preds = %71, %70
  call void @llvm.lifetime.end.p0(i64 72, ptr nonnull %6) #14
  br label %104

80:                                               ; preds = %30
  %81 = getelementptr inbounds nuw i8, ptr %3, i64 16
  store i32 1, ptr %81, align 8, !tbaa !41
  %82 = call ptr @h5tools_str_reset(ptr noundef nonnull %2) #14
  %83 = load ptr, ptr @xmlnsprefix, align 8, !tbaa !18
  %84 = call ptr (ptr, ptr, ...) @h5tools_str_append(ptr noundef nonnull %2, ptr noundef nonnull @.str.4, ptr noundef %83) #14
  %85 = load ptr, ptr @rawoutstream, align 8, !tbaa !42
  %86 = load i32, ptr %31, align 8, !tbaa !28
  %87 = zext i32 %86 to i64
  %88 = call zeroext i1 @h5tools_render_element(ptr noundef %85, ptr noundef nonnull %4, ptr noundef nonnull %3, ptr noundef nonnull %2, ptr noundef nonnull %5, i64 noundef %87, i64 noundef 0, i64 noundef 0) #14
  %89 = load i32, ptr %10, align 8, !tbaa !32
  %90 = add i32 %89, 1
  store i32 %90, ptr %10, align 8, !tbaa !32
  %91 = load i32, ptr @dump_indent, align 4, !tbaa !8
  %92 = add i32 %91, 3
  store i32 %92, ptr @dump_indent, align 4, !tbaa !8
  call fastcc void @xml_print_datatype(i64 noundef %0, i32 noundef 0)
  %93 = load i32, ptr %10, align 8, !tbaa !32
  %94 = add i32 %93, -1
  store i32 %94, ptr %10, align 8, !tbaa !32
  %95 = load i32, ptr @dump_indent, align 4, !tbaa !8
  %96 = add i32 %95, -3
  store i32 %96, ptr @dump_indent, align 4, !tbaa !8
  store i32 1, ptr %81, align 8, !tbaa !41
  %97 = call ptr @h5tools_str_reset(ptr noundef nonnull %2) #14
  %98 = load ptr, ptr @xmlnsprefix, align 8, !tbaa !18
  %99 = call ptr (ptr, ptr, ...) @h5tools_str_append(ptr noundef nonnull %2, ptr noundef nonnull @.str.5, ptr noundef %98) #14
  %100 = load ptr, ptr @rawoutstream, align 8, !tbaa !42
  %101 = load i32, ptr %31, align 8, !tbaa !28
  %102 = zext i32 %101 to i64
  %103 = call zeroext i1 @h5tools_render_element(ptr noundef %100, ptr noundef nonnull %4, ptr noundef nonnull %3, ptr noundef nonnull %2, ptr noundef nonnull %5, i64 noundef %102, i64 noundef 0, i64 noundef 0) #14
  br label %104

104:                                              ; preds = %80, %79
  %105 = load i32, ptr %10, align 8, !tbaa !32
  %106 = add i32 %105, -1
  store i32 %106, ptr %10, align 8, !tbaa !32
  %107 = load i32, ptr @dump_indent, align 4, !tbaa !8
  %108 = add i32 %107, -3
  store i32 %108, ptr @dump_indent, align 4, !tbaa !8
  call void @h5tools_str_close(ptr noundef nonnull %2) #14
  call void @llvm.lifetime.end.p0(i64 8, ptr nonnull %5) #14
  call void @llvm.lifetime.end.p0(i64 456, ptr nonnull %4) #14
  call void @llvm.lifetime.end.p0(i64 1120, ptr nonnull %3) #14
  call void @llvm.lifetime.end.p0(i64 24, ptr nonnull %2) #14
  ret void
}